target datalayout = "e-m:e-p270:32:32-p271:32:32-p272:64:64-i64:64-i128:128-f80:128-n8:16:32:64-S128"
target triple = "x86_64-pc-linux-gnu"

@.str.123 = private unnamed_addr constant [9 x i8] c"Reserved\00", align 1
@.str.150 = private unnamed_addr constant [3 x i8] c"%s\00", align 1
@hf_gsm_a_dtap_repeat_indicator = internal global i32 0, align 4

; Function Attrs: null_pointer_is_valid sspstrong uwtable
define internal zeroext i16 @de_repeat_ind(ptr noundef %0, ptr noundef %1, ptr noundef %2, i32 noundef %3, i32 noundef %4, ptr noundef %5, i32 noundef %6) #1 {
  %8 = alloca ptr, align 8
  %9 = alloca ptr, align 8
  %10 = alloca ptr, align 8
  %11 = alloca i32, align 4
  %12 = alloca i32, align 4
  %13 = alloca ptr, align 8
  %14 = alloca i32, align 4
  %15 = alloca i8, align 1
  %16 = alloca i32, align 4
  store ptr %0, ptr %8, align 8
  store ptr %1, ptr %9, align 8
  store ptr %2, ptr %10, align 8
  store i32 %3, ptr %11, align 4
  store i32 %4, ptr %12, align 4
  store ptr %5, ptr %13, align 8
  store i32 %6, ptr %14, align 4
  call void @llvm.lifetime.start.p0(i64 1, ptr %15) #7
  call void @llvm.lifetime.start.p0(i64 4, ptr %16) #7
  %17 = load i32, ptr %11, align 4
  store i32 %17, ptr %16, align 4
  %18 = load ptr, ptr %8, align 8
  %19 = load i32, ptr %16, align 4
  %20 = call zeroext i8 @tvb_get_uint8(ptr noundef %18, i32 noundef %19)
  store i8 %20, ptr %15, align 1
  %21 = load ptr, ptr %9, align 8
  %22 = load i32, ptr @hf_gsm_a_dtap_repeat_indicator, align 4
  %23 = load ptr, ptr %8, align 8
  %24 = load i32, ptr %16, align 4
  %25 = load i8, ptr %15, align 1
  %26 = zext i8 %25 to i32
  %27 = load i8, ptr %15, align 1
  %28 = zext i8 %27 to i32
  %29 = and i32 %28, 15
  %30 = call ptr @val_to_str_const(i32 noundef %29, ptr noundef @gsm_a_dtap_repeat_indicator_vals, ptr noundef @.str.123)
  %31 = call ptr (ptr, i32, ptr, i32, i32, i32, ptr, ...) @proto_tree_add_uint_format_value(ptr noundef %21, i32 noundef %22, ptr noundef %23, i32 noundef %24, i32 noundef 1, i32 noundef %26, ptr noundef @.str.150, ptr noundef %30)
  %32 = load i32, ptr %16, align 4
  %33 = add i32 %32, 1
  store i32 %33, ptr %16, align 4
  %34 = load i32, ptr %16, align 4
  %35 = load i32, ptr %11, align 4
  %36 = sub i32 %34, %35
  %37 = trunc i32 %36 to i16
  call void @llvm.lifetime.end.p0(i64 4, ptr %16) #7
  call void @llvm.lifetime.end.p0(i64 1, ptr %15) #7
  ret i16 %37
}