; Function Attrs: null_pointer_is_valid sspstrong uwtable
define internal noundef zeroext i16 @de_repeat_ind(ptr noundef %0, ptr noundef %1, ptr readnone captures(none) %2, i32 noundef %3, i32 %4, ptr readnone captures(none) %5, i32 %6) #1 {
  %8 = tail call zeroext i8 @tvb_get_uint8(ptr noundef %0, i32 noundef %3)
  %9 = load i32, ptr @hf_gsm_a_dtap_repeat_indicator, align 4
  %10 = zext i8 %8 to i32
  %11 = and i32 %10, 15
  %12 = tail call ptr @val_to_str_const(i32 noundef %11, ptr noundef nonnull @gsm_a_dtap_repeat_indicator_vals, ptr noundef nonnull @.str.123)
  %13 = tail call ptr (ptr, i32, ptr, i32, i32, i32, ptr, ...) @proto_tree_add_uint_format_value(ptr noundef %1, i32 noundef %9, ptr noundef %0, i32 noundef %3, i32 noundef 1, i32 noundef %10, ptr noundef nonnull @.str.150, ptr noundef %12)
  ret i16 1
}